; ModuleID = '23/341.cpp'
source_filename = "23/341.cpp"
target datalayout = "e-m:e-p270:32:32-p271:32:32-p272:64:64-i64:64-f80:128-n8:16:32:64-S128"
target triple = "x86_64-pc-linux-gnu"

%"class.std::ios_base::Init" = type { i8 }
%"class.std::basic_istream" = type { i32 (...)**, i64, %"class.std::basic_ios" }
%"class.std::basic_ios" = type { %"class.std::ios_base", %"class.std::basic_ostream"*, i8, i8, %"class.std::basic_streambuf"*, %"class.std::ctype"*, %"class.std::num_put"*, %"class.std::num_get"* }
%"class.std::ios_base" = type { i32 (...)**, i64, i64, i32, i32, i32, %"struct.std::ios_base::_Callback_list"*, %"struct.std::ios_base::_Words", [8 x %"struct.std::ios_base::_Words"], i32, %"struct.std::ios_base::_Words"*, %"class.std::locale" }
%"struct.std::ios_base::_Callback_list" = type { %"struct.std::ios_base::_Callback_list"*, void (i32, %"class.std::ios_base"*, i32)*, i32, i32 }
%"struct.std::ios_base::_Words" = type { i8*, i64 }
%"class.std::locale" = type { %"class.std::locale::_Impl"* }
%"class.std::locale::_Impl" = type { i32, %"class.std::locale::facet"**, i64, %"class.std::locale::facet"**, i8** }
%"class.std::locale::facet" = type <{ i32 (...)**, i32, [4 x i8] }>
%"class.std::basic_ostream" = type { i32 (...)**, %"class.std::basic_ios" }
%"class.std::basic_streambuf" = type { i32 (...)**, i8*, i8*, i8*, i8*, i8*, i8*, %"class.std::locale" }
%"class.std::ctype" = type <{ %"class.std::locale::facet.base", [4 x i8], %struct.__locale_struct*, i8, [7 x i8], i32*, i32*, i16*, i8, [256 x i8], [256 x i8], i8, [6 x i8] }>
%"class.std::locale::facet.base" = type <{ i32 (...)**, i32 }>
%struct.__locale_struct = type { [13 x %struct.__locale_data*], i16*, i32*, i32*, [13 x i8*] }
%struct.__locale_data = type opaque
%"class.std::num_put" = type { %"class.std::locale::facet.base", [4 x i8] }
%"class.std::num_get" = type { %"class.std::locale::facet.base", [4 x i8] }

@_ZStL8__ioinit = internal global %"class.std::ios_base::Init" zeroinitializer, align 1
@__dso_handle = external hidden global i8
@_ZSt3cin = external dso_local global %"class.std::basic_istream", align 8
@_ZSt4cout = external dso_local global %"class.std::basic_ostream", align 8
@llvm.global_ctors = appending global [1 x { i32, void ()*, i8* }] [{ i32, void ()*, i8* } { i32 65535, void ()* @_GLOBAL__sub_I_341.cpp, i8* null }]

; Function Attrs: noinline uwtable
define internal void @__cxx_global_var_init() #0 section ".text.startup" {
  call void @_ZNSt8ios_base4InitC1Ev(%"class.std::ios_base::Init"* @_ZStL8__ioinit)
  %1 = call i32 @__cxa_atexit(void (i8*)* bitcast (void (%"class.std::ios_base::Init"*)* @_ZNSt8ios_base4InitD1Ev to void (i8*)*), i8* getelementptr inbounds (%"class.std::ios_base::Init", %"class.std::ios_base::Init"* @_ZStL8__ioinit, i32 0, i32 0), i8* @__dso_handle) #3
  ret void
}

declare dso_local void @_ZNSt8ios_base4InitC1Ev(%"class.std::ios_base::Init"*) unnamed_addr #1

; Function Attrs: nounwind
declare dso_local void @_ZNSt8ios_base4InitD1Ev(%"class.std::ios_base::Init"*) unnamed_addr #2

; Function Attrs: nounwind
declare dso_local i32 @__cxa_atexit(void (i8*)*, i8*, i8*) #3

; Function Attrs: noinline norecurse uwtable
define dso_local i32 @main() #4 {
  %1 = alloca i32, align 4
  %2 = alloca i32, align 4
  %3 = alloca i32, align 4
  %4 = alloca i32, align 4
  %5 = alloca i32, align 4
  %6 = alloca i32, align 4
  %7 = alloca [100 x i8], align 16
  store i32 0, i32* %1, align 4
  %8 = getelementptr inbounds [100 x i8], [100 x i8]* %7, i64 0, i64 0
  %9 = call dereferenceable(280) %"class.std::basic_istream"* @_ZNSi7getlineEPcl(%"class.std::basic_istream"* @_ZSt3cin, i8* %8, i64 100)
  store i32 0, i32* %2, align 4
  br label %10

10:                                               ; preds = %18, %0
  %11 = load i32, i32* %2, align 4
  %12 = sext i32 %11 to i64
  %13 = getelementptr inbounds [100 x i8], [100 x i8]* %7, i64 0, i64 %12
  %14 = load i8, i8* %13, align 1
  %15 = sext i8 %14 to i32
  %16 = icmp ne i32 %15, 0
  br i1 %16, label %17, label %21

17:                                               ; preds = %10
  br label %18

18:                                               ; preds = %17
  %19 = load i32, i32* %2, align 4
  %20 = add nsw i32 %19, 1
  store i32 %20, i32* %2, align 4
  br label %10

21:                                               ; preds = %10
  %22 = load i32, i32* %2, align 4
  %23 = add nsw i32 %22, 1
  store i32 %23, i32* %5, align 4
  %24 = load i32, i32* %2, align 4
  %25 = sub nsw i32 %24, 1
  store i32 %25, i32* %3, align 4
  br label %26

26:                                               ; preds = %58, %21
  %27 = load i32, i32* %3, align 4
  %28 = icmp sge i32 %27, 0
  br i1 %28, label %29, label %61

29:                                               ; preds = %26
  %30 = load i32, i32* %3, align 4
  %31 = sext i32 %30 to i64
  %32 = getelementptr inbounds [100 x i8], [100 x i8]* %7, i64 0, i64 %31
  %33 = load i8, i8* %32, align 1
  %34 = sext i8 %33 to i32
  %35 = icmp eq i32 %34, 32
  br i1 %35, label %36, label %57

36:                                               ; preds = %29
  %37 = load i32, i32* %5, align 4
  %38 = sub nsw i32 %37, 1
  store i32 %38, i32* %6, align 4
  %39 = load i32, i32* %3, align 4
  %40 = add nsw i32 %39, 1
  store i32 %40, i32* %5, align 4
  %41 = load i32, i32* %5, align 4
  store i32 %41, i32* %4, align 4
  br label %42

42:                                               ; preds = %52, %36
  %43 = load i32, i32* %4, align 4
  %44 = load i32, i32* %6, align 4
  %45 = icmp slt i32 %43, %44
  br i1 %45, label %46, label %55

46:                                               ; preds = %42
  %47 = load i32, i32* %4, align 4
  %48 = sext i32 %47 to i64
  %49 = getelementptr inbounds [100 x i8], [100 x i8]* %7, i64 0, i64 %48
  %50 = load i8, i8* %49, align 1
  %51 = call dereferenceable(272) %"class.std::basic_ostream"* @_ZStlsISt11char_traitsIcEERSt13basic_ostreamIcT_ES5_c(%"class.std::basic_ostream"* dereferenceable(272) @_ZSt4cout, i8 signext %50)
  br label %52

52:                                               ; preds = %46
  %53 = load i32, i32* %4, align 4
  %54 = add nsw i32 %53, 1
  store i32 %54, i32* %4, align 4
  br label %42

55:                                               ; preds = %42
  %56 = call dereferenceable(272) %"class.std::basic_ostream"* @_ZStlsISt11char_traitsIcEERSt13basic_ostreamIcT_ES5_c(%"class.std::basic_ostream"* dereferenceable(272) @_ZSt4cout, i8 signext 32)
  br label %57

57:                                               ; preds = %55, %29
  br label %58

58:                                               ; preds = %57
  %59 = load i32, i32* %3, align 4
  %60 = add nsw i32 %59, -1
  store i32 %60, i32* %3, align 4
  br label %26

61:                                               ; preds = %26
  store i32 0, i32* %4, align 4
  br label %62

62:                                               ; preds = %73, %61
  %63 = load i32, i32* %4, align 4
  %64 = load i32, i32* %5, align 4
  %65 = sub nsw i32 %64, 1
  %66 = icmp slt i32 %63, %65
  br i1 %66, label %67, label %76

67:                                               ; preds = %62
  %68 = load i32, i32* %4, align 4
  %69 = sext i32 %68 to i64
  %70 = getelementptr inbounds [100 x i8], [100 x i8]* %7, i64 0, i64 %69
  %71 = load i8, i8* %70, align 1
  %72 = call dereferenceable(272) %"class.std::basic_ostream"* @_ZStlsISt11char_traitsIcEERSt13basic_ostreamIcT_ES5_c(%"class.std::basic_ostream"* dereferenceable(272) @_ZSt4cout, i8 signext %71)
  br label %73

73:                                               ; preds = %67
  %74 = load i32, i32* %4, align 4
  %75 = add nsw i32 %74, 1
  store i32 %75, i32* %4, align 4
  br label %62

76:                                               ; preds = %62
  %77 = load i32, i32* %1, align 4
  ret i32 %77
}

declare dso_local dereferenceable(280) %"class.std::basic_istream"* @_ZNSi7getlineEPcl(%"class.std::basic_istream"*, i8*, i64) #1

declare dso_local dereferenceable(272) %"class.std::basic_ostream"* @_ZStlsISt11char_traitsIcEERSt13basic_ostreamIcT_ES5_c(%"class.std::basic_ostream"* dereferenceable(272), i8 signext) #1

; Function Attrs: noinline uwtable
define internal void @_GLOBAL__sub_I_341.cpp() #0 section ".text.startup" {
  call void @__cxx_global_var_init()
  ret void
}


!llvm.module.flags = !{!0}
!llvm.ident = !{!1}

!0 = !{i32 1, !"wchar_size", i32 4}
!1 = !{!"clang version 10.0.0-4ubuntu1 "}
